Certificate:
    Data:
        Version: 3 (0x2)
        Serial Number:
            f1:6f:aa:e6:41:78:18:8a
    Signature Algorithm: sha256WithRSAEncryption
        Issuer: C=AU, ST=Some-State, O=Internet Widgits Pty Ltd, CN=cacommonname
        Validity
            Not Before: Mar 18 23:09:32 2018 GMT
            Not After : Mar 17 23:09:32 2021 GMT
        Subject: C=AU, ST=Some-State, O=Internet Widgits Pty Ltd, CN=cacommonname
        Subject Public Key Info:
            Public Key Algorithm: rsaEncryption
                Public-Key: (2048 bit)
                Modulus:
                    00:d9:f5:e4:11:87:0e:4e:9b:dc:b0:a2:87:18:d3:
                    11:6d:e9:d9:25:6b:35:71:d7:a0:3f:80:76:d7:95:
                    56:6b:3c:1e:0b:46:d7:fc:28:be:0f:f8:43:1e:d3:
                    25:c7:2f:dd:d3:21:c1:c5:53:cf:64:53:1f:af:6b:
                    eb:a0:b3:5b:8b:8b:77:21:4d:cc:5e:7c:8b:31:87:
                    05:da:7d:b3:b7:ae:1c:aa:73:84:bf:13:69:69:f8:
                    2e:99:a9:de:31:b1:e8:42:c1:99:17:dd:b6:ed:9d:
                    1d:c0:74:83:90:a7:39:0e:92:3f:69:d5:c1:8c:3e:
                    55:78:2e:f3:96:74:74:81:34:10:21:05:98:59:ed:
                    3a:18:65:94:2d:59:84:c2:c3:71:6d:6c:65:9c:e2:
                    c9:c1:a1:47:2b:6b:4f:99:ab:2a:75:88:66:92:f8:
                    1d:14:20:7a:01:2c:f4:09:f2:23:9d:df:f9:71:a5:
                    53:d2:41:04:9e:78:c5:d0:e1:32:a3:ef:f5:fa:0f:
                    7c:80:9a:f6:a9:47:50:e5:f4:f9:6d:97:f6:43:62:
                    5c:a9:7d:2e:f8:21:07:c8:22:d8:91:dc:cb:93:62:
                    8e:dc:76:6b:2e:fa:d3:5f:18:06:a0:8e:b7:6d:52:
                    01:ac:e1:77:ed:ba:72:05:bd:68:de:7e:d8:2e:0e:
                    09:cd
                Exponent: 65537 (0x10001)
        X509v3 extensions:
            X509v3 Subject Key Identifier: 
                57:0B:E3:A9:7D:D0:3C:C4:D7:3B:18:77:E9:24:07:F7:3C:22:59:15
            X509v3 Authority Key Identifier: 
                keyid:57:0B:E3:A9:7D:D0:3C:C4:D7:3B:18:77:E9:24:07:F7:3C:22:59:15

            X509v3 Basic Constraints: critical
                CA:TRUE
    Signature Algorithm: sha256WithRSAEncryption
         16:2d:45:9f:0f:b0:c6:9c:10:ea:21:c2:c0:a5:3a:d4:f1:50:
         f0:46:8f:29:6d:5e:c9:78:b0:86:d4:05:5f:44:c1:60:d7:62:
         6b:af:b2:e9:df:41:8b:88:3e:22:29:0f:45:f3:74:92:88:11:
         47:b4:80:f3:9d:78:4f:9c:51:b8:76:03:42:b3:93:b5:71:76:
         43:a3:0f:a4:35:53:1c:ac:98:4e:68:28:e5:2b:65:51:e1:05:
         ba:10:5f:c6:81:41:34:6a:8c:c4:e9:f7:ab:a2:b1:06:bd:17:
         97:f5:7a:3b:f5:ca:7f:27:fc:53:38:56:7d:2f:6c:74:22:df:
         16:88:22:af:c6:af:1e:e2:c2:02:ac:b4:d1:92:72:f4:70:26:
         64:32:2e:4d:ae:f6:c5:c8:d2:95:cf:ad:4a:e2:77:a8:65:40:
         2e:5b:22:6c:68:c9:a7:17:e6:79:16:d0:5b:33:2a:42:5b:57:
         a8:f7:62:49:e0:35:66:e0:c1:a3:b0:f3:17:bd:6a:c1:9b:90:
         fe:02:08:78:ca:7d:de:54:c6:b0:55:ea:39:7b:35:4f:ec:c6:
         9b:ab:5d:bb:19:6a:67:81:e9:a1:6d:c9:7c:65:23:55:c6:68:
         05:5b:86:82:a0:93:1a:64:0a:10:39:1b:7a:e0:6f:3a:07:0b:
         37:07:e4:42
-----BEGIN CERTIFICATE-----
MIIDjjCCAnagAwIBAgIJAPFvquZBeBiKMA0GCSqGSIb3DQEBCwUAMFwxCzAJBgNV
BAYTAkFVMRMwEQYDVQQIDApTb21lLVN0YXRlMSEwHwYDVQQKDBhJbnRlcm5ldCBX
aWRnaXRzIFB0eSBMdGQxFTATBgNVBAMMDGNhY29tbW9ubmFtZTAeFw0xODAzMTgy
MzA5MzJaFw0yMTAzMTcyMzA5MzJaMFwxCzAJBgNVBAYTAkFVMRMwEQYDVQQIDApT
b21lLVN0YXRlMSEwHwYDVQQKDBhJbnRlcm5ldCBXaWRnaXRzIFB0eSBMdGQxFTAT
BgNVBAMMDGNhY29tbW9ubmFtZTCCASIwDQYJKoZIhvcNAQEBBQADggEPADCCAQoC
ggEBANn15BGHDk6b3LCihxjTEW3p2SVrNXHXoD+AdteVVms8HgtG1/wovg/4Qx7T
Jccv3dMhwcVTz2RTH69r66CzW4uLdyFNzF58izGHBdp9s7euHKpzhL8TaWn4Lpmp
3jGx6ELBmRfdtu2dHcB0g5CnOQ6SP2nVwYw+VXgu85Z0dIE0ECEFmFntOhhllC1Z
hMLDcW1sZZziycGhRytrT5mrKnWIZpL4HRQgegEs9AnyI53f+XGlU9JBBJ54xdDh
MqPv9foPfICa9qlHUOX0+W2X9kNiXKl9LvghB8gi2JHcy5Nijtx2ay76018YBqCO
t21SAazhd+26cgW9aN5+2C4OCc0CAwEAAaNTMFEwHQYDVR0OBBYEFFcL46l90DzE
1zsYd+kkB/c8IlkVMB8GA1UdIwQYMBaAFFcL46l90DzE1zsYd+kkB/c8IlkVMA8G
A1UdEwEB/wQFMAMBAf8wDQYJKoZIhvcNAQELBQADggEBABYtRZ8PsMacEOohwsCl
OtTxUPBGjyltXsl4sIbUBV9EwWDXYmuvsunfQYuIPiIpD0XzdJKIEUe0gPOdeE+c
Ubh2A0Kzk7VxdkOjD6Q1UxysmE5oKOUrZVHhBboQX8aBQTRqjMTp96uisQa9F5f1
ejv1yn8n/FM4Vn0vbHQi3xaIIq/Grx7iwgKstNGScvRwJmQyLk2u9sXI0pXPrUri
d6hlQC5bImxoyacX5nkW0FszKkJbV6j3YkngNWbgwaOw8xe9asGbkP4CCHjKfd5U
xrBV6jl7NU/sxpurXbsZameB6aFtyXxlI1XGaAVbhoKgkxpkChA5G3rgbzoHCzcH
5EI=
-----END CERTIFICATE-----
