Certificate:
    Data:
        Version: 3 (0x2)
        Serial Number:
            f1:6f:aa:e6:41:78:18:89
    Signature Algorithm: sha256WithRSAEncryption
        Issuer: C=AU, ST=Some-State, O=Internet Widgits Pty Ltd, CN=gani
        Validity
            Not Before: Mar 18 22:56:03 2018 GMT
            Not After : Mar 17 22:56:03 2021 GMT
        Subject: C=AU, ST=Some-State, O=Internet Widgits Pty Ltd, CN=gani
        Subject Public Key Info:
            Public Key Algorithm: rsaEncryption
                Public-Key: (2048 bit)
                Modulus:
                    00:ac:94:6c:d1:a9:67:eb:2c:69:9b:f5:50:a6:c8:
                    b7:b4:4e:58:58:9e:b1:7c:24:ec:4d:bf:cb:25:43:
                    b8:2f:ca:93:0b:e1:c4:41:40:9a:0f:dd:5a:11:84:
                    1f:66:70:48:90:b9:de:fc:b4:b3:80:6b:e8:99:9d:
                    b9:63:d1:7e:cf:9e:6b:3d:32:88:c6:fa:04:34:52:
                    fd:c2:c7:5b:bc:90:82:53:04:4d:d5:ce:19:4a:21:
                    9c:d2:12:c8:61:de:1b:68:5d:18:95:a5:16:ac:7b:
                    e7:ae:d6:6a:22:d0:b3:7b:5b:50:8e:e1:b5:d3:01:
                    6e:c1:71:bb:3d:86:b9:1c:5e:7f:c3:f5:26:68:d5:
                    36:33:df:c2:fe:36:bf:d1:f1:c8:62:e8:dd:65:c7:
                    30:57:e2:94:b4:04:62:26:17:37:8c:96:34:96:1a:
                    13:29:37:78:08:d5:96:96:41:51:fc:70:38:5c:83:
                    5f:62:42:f4:f5:85:fd:51:b9:42:da:51:4d:a3:1e:
                    1d:cb:2b:cc:76:e8:59:ab:3a:5b:e1:f6:f1:22:5a:
                    13:03:7e:93:fb:4a:79:96:8d:c4:d5:26:a8:e8:9c:
                    19:1e:49:27:7d:3b:f6:a3:17:46:af:5f:17:5f:b2:
                    7d:15:79:b9:9f:0e:43:45:11:85:0e:13:2b:b3:90:
                    91:a3
                Exponent: 65537 (0x10001)
        X509v3 extensions:
            X509v3 Subject Key Identifier: 
                3C:93:E0:6F:61:F5:85:C9:5B:DD:D4:86:29:F7:57:0F:2E:FC:7A:69
            X509v3 Authority Key Identifier: 
                keyid:3C:93:E0:6F:61:F5:85:C9:5B:DD:D4:86:29:F7:57:0F:2E:FC:7A:69

            X509v3 Basic Constraints: critical
                CA:TRUE
    Signature Algorithm: sha256WithRSAEncryption
         5a:9d:d1:0d:f7:a4:90:cf:3b:6f:54:64:d6:a2:75:31:bc:10:
         c2:dd:a7:e8:2e:22:75:67:62:3e:9a:e5:50:c2:c5:a0:eb:ee:
         df:3a:29:b1:7a:98:35:5a:bc:a5:45:8d:aa:8d:92:97:f2:c5:
         bd:0a:54:7e:88:13:51:1a:37:ab:b4:0e:d2:9d:98:ae:f7:46:
         91:cd:6f:fe:f8:69:b6:06:b0:f0:e3:07:c6:59:5a:7f:ce:cc:
         a2:d6:46:a8:2b:6d:89:8c:89:d5:e6:57:5d:01:51:09:c5:2d:
         c5:e2:89:2a:74:90:01:d2:d0:42:78:0d:7b:e5:1a:5d:08:c5:
         9b:dd:87:f0:2d:35:66:5b:30:31:55:81:5c:3e:be:eb:16:65:
         21:a7:2b:31:19:bb:df:ed:2e:eb:27:f3:09:42:79:65:86:27:
         0a:37:66:40:5a:b7:bb:55:3a:5e:77:49:c6:96:1b:1c:3b:70:
         f8:5b:75:47:05:f1:67:65:22:46:b5:84:6f:fa:6d:9b:f3:c8:
         dc:50:3c:2c:31:7e:69:94:db:09:8b:ee:67:47:8d:25:09:f4:
         9c:60:ce:a9:7d:b3:9a:62:1f:37:92:f1:a5:c5:9d:d9:bf:6e:
         9e:a5:52:37:5e:0b:59:39:73:8a:6a:bc:56:b4:f4:f3:fb:95:
         cb:13:f0:9c
-----BEGIN CERTIFICATE-----
MIIDfjCCAmagAwIBAgIJAPFvquZBeBiJMA0GCSqGSIb3DQEBCwUAMFQxCzAJBgNV
BAYTAkFVMRMwEQYDVQQIDApTb21lLVN0YXRlMSEwHwYDVQQKDBhJbnRlcm5ldCBX
aWRnaXRzIFB0eSBMdGQxDTALBgNVBAMMBGdhbmkwHhcNMTgwMzE4MjI1NjAzWhcN
MjEwMzE3MjI1NjAzWjBUMQswCQYDVQQGEwJBVTETMBEGA1UECAwKU29tZS1TdGF0
ZTEhMB8GA1UECgwYSW50ZXJuZXQgV2lkZ2l0cyBQdHkgTHRkMQ0wCwYDVQQDDARn
YW5pMIIBIjANBgkqhkiG9w0BAQEFAAOCAQ8AMIIBCgKCAQEArJRs0aln6yxpm/VQ
psi3tE5YWJ6xfCTsTb/LJUO4L8qTC+HEQUCaD91aEYQfZnBIkLne/LSzgGvomZ25
Y9F+z55rPTKIxvoENFL9wsdbvJCCUwRN1c4ZSiGc0hLIYd4baF0YlaUWrHvnrtZq
ItCze1tQjuG10wFuwXG7PYa5HF5/w/UmaNU2M9/C/ja/0fHIYujdZccwV+KUtARi
Jhc3jJY0lhoTKTd4CNWWlkFR/HA4XINfYkL09YX9UblC2lFNox4dyyvMduhZqzpb
4fbxIloTA36T+0p5lo3E1Sao6JwZHkknfTv2oxdGr18XX7J9FXm5nw5DRRGFDhMr
s5CRowIDAQABo1MwUTAdBgNVHQ4EFgQUPJPgb2H1hclb3dSGKfdXDy78emkwHwYD
VR0jBBgwFoAUPJPgb2H1hclb3dSGKfdXDy78emkwDwYDVR0TAQH/BAUwAwEB/zAN
BgkqhkiG9w0BAQsFAAOCAQEAWp3RDfekkM87b1Rk1qJ1MbwQwt2n6C4idWdiPprl
UMLFoOvu3zopsXqYNVq8pUWNqo2Sl/LFvQpUfogTURo3q7QO0p2YrvdGkc1v/vhp
tgaw8OMHxllaf87MotZGqCttiYyJ1eZXXQFRCcUtxeKJKnSQAdLQQngNe+UaXQjF
m92H8C01ZlswMVWBXD6+6xZlIacrMRm73+0u6yfzCUJ5ZYYnCjdmQFq3u1U6XndJ
xpYbHDtw+Ft1RwXxZ2UiRrWEb/ptm/PI3FA8LDF+aZTbCYvuZ0eNJQn0nGDOqX2z
mmIfN5LxpcWd2b9unqVSN14LWTlzimq8VrT08/uVyxPwnA==
-----END CERTIFICATE-----
