Certificate:
    Data:
        Version: 3 (0x2)
        Serial Number:
            f1:6f:aa:e6:41:78:18:8b
    Signature Algorithm: sha256WithRSAEncryption
        Issuer: C=AU, ST=Some-State, O=Internet Widgits Pty Ltd, CN=cacommonname
        Validity
            Not Before: Mar 18 23:12:32 2018 GMT
            Not After : Mar 18 23:12:32 2019 GMT
        Subject: C=AU, ST=Some-State, O=Internet Widgits Pty Ltd, CN=ganiclr
        Subject Public Key Info:
            Public Key Algorithm: rsaEncryption
                Public-Key: (2048 bit)
                Modulus:
                    00:b6:81:d2:40:42:e9:14:a7:69:c3:9a:c9:cd:13:
                    19:d4:de:d3:c4:5d:ab:4e:58:de:fc:c6:4b:84:05:
                    48:ca:a2:64:e3:b4:37:93:91:fe:32:c1:98:58:5a:
                    b5:3c:ea:1c:fa:76:cf:06:a9:b1:18:0d:cd:53:27:
                    60:c7:f5:79:cd:ce:5f:bd:1b:2c:6b:fe:49:b3:3f:
                    8f:83:06:a6:bc:b9:53:7a:d9:79:e1:b4:2c:38:7a:
                    a9:91:32:76:6b:2b:50:3b:79:a6:00:fb:e4:1c:c8:
                    d4:e2:3e:2b:56:4c:b0:9a:7c:1b:c6:32:e3:94:76:
                    a3:a1:7d:ee:6b:8e:2e:91:78:fa:5c:b1:09:7a:34:
                    53:b7:32:e3:dd:10:81:4b:7c:70:35:96:a8:a6:28:
                    9e:ac:7d:25:d0:d0:6d:86:af:70:45:a5:ce:20:06:
                    c3:57:7e:95:a9:81:1c:79:89:3b:8a:99:ac:c1:3f:
                    9c:0b:2e:a0:e9:17:ee:d1:a5:03:38:01:7f:b9:2a:
                    27:d6:23:54:60:58:61:0a:57:23:d0:45:e1:30:b7:
                    e2:dc:35:d1:98:fa:2c:f6:0f:54:eb:83:7c:24:c0:
                    31:eb:2f:85:03:26:4b:70:1d:7c:90:dc:1a:99:c7:
                    f4:83:6e:36:8b:a5:f5:6e:c0:ac:82:f2:e2:24:3b:
                    86:79
                Exponent: 65537 (0x10001)
        X509v3 extensions:
            X509v3 Basic Constraints: 
                CA:FALSE
            Netscape Comment: 
                OpenSSL Generated Certificate
            X509v3 Subject Key Identifier: 
                66:DD:B5:D7:29:08:22:4B:D2:F5:B8:B2:39:7F:6F:AE:8E:4D:66:C3
            X509v3 Authority Key Identifier: 
                keyid:57:0B:E3:A9:7D:D0:3C:C4:D7:3B:18:77:E9:24:07:F7:3C:22:59:15

    Signature Algorithm: sha256WithRSAEncryption
         b4:6b:84:98:cc:9a:f8:e3:44:2d:e2:e3:0c:86:4d:2e:24:c7:
         45:6d:0a:64:fa:99:92:f4:a9:fd:26:b0:1f:84:6b:45:4f:00:
         9c:a9:71:23:83:08:36:35:83:2a:fd:26:fb:b4:51:a1:95:01:
         d4:01:3d:4f:15:7c:ad:6c:43:84:e0:eb:f9:ea:89:0d:19:95:
         f9:ca:6c:5c:b8:bd:91:6e:be:26:55:04:28:1b:ce:0e:f1:32:
         65:e5:ed:c2:e8:85:91:72:1a:dc:82:0f:b9:d8:1a:37:06:65:
         92:4d:e2:3e:0d:c5:58:7e:24:7f:84:9a:3f:67:33:b4:b3:da:
         8d:af:90:79:f9:96:df:50:f1:f9:32:95:9d:a4:45:b7:2c:ea:
         00:ab:3e:9a:c1:f4:3a:d4:e2:85:bf:af:6e:b3:07:00:c8:91:
         b3:2e:7b:76:eb:5b:f3:2c:a2:b6:f5:f5:ea:f9:3d:07:b8:09:
         c9:14:b4:02:03:7b:19:11:15:6d:ff:71:41:73:b3:94:a7:95:
         ea:f6:c1:57:94:06:8b:ac:d1:51:c9:aa:07:d4:d6:e0:54:a4:
         8a:9a:58:44:54:8d:d5:82:fb:3e:6d:60:82:90:e9:f3:7f:44:
         e5:00:b8:c1:85:d9:2c:12:9b:19:5b:90:95:7c:f5:cd:bc:f4:
         d0:9c:49:1e
-----BEGIN CERTIFICATE-----
MIIDsTCCApmgAwIBAgIJAPFvquZBeBiLMA0GCSqGSIb3DQEBCwUAMFwxCzAJBgNV
BAYTAkFVMRMwEQYDVQQIDApTb21lLVN0YXRlMSEwHwYDVQQKDBhJbnRlcm5ldCBX
aWRnaXRzIFB0eSBMdGQxFTATBgNVBAMMDGNhY29tbW9ubmFtZTAeFw0xODAzMTgy
MzEyMzJaFw0xOTAzMTgyMzEyMzJaMFcxCzAJBgNVBAYTAkFVMRMwEQYDVQQIDApT
b21lLVN0YXRlMSEwHwYDVQQKDBhJbnRlcm5ldCBXaWRnaXRzIFB0eSBMdGQxEDAO
BgNVBAMMB2dhbmljbHIwggEiMA0GCSqGSIb3DQEBAQUAA4IBDwAwggEKAoIBAQC2
gdJAQukUp2nDmsnNExnU3tPEXatOWN78xkuEBUjKomTjtDeTkf4ywZhYWrU86hz6
ds8GqbEYDc1TJ2DH9XnNzl+9Gyxr/kmzP4+DBqa8uVN62XnhtCw4eqmRMnZrK1A7
eaYA++QcyNTiPitWTLCafBvGMuOUdqOhfe5rji6RePpcsQl6NFO3MuPdEIFLfHA1
lqimKJ6sfSXQ0G2Gr3BFpc4gBsNXfpWpgRx5iTuKmazBP5wLLqDpF+7RpQM4AX+5
KifWI1RgWGEKVyPQReEwt+LcNdGY+iz2D1Trg3wkwDHrL4UDJktwHXyQ3BqZx/SD
bjaLpfVuwKyC8uIkO4Z5AgMBAAGjezB5MAkGA1UdEwQCMAAwLAYJYIZIAYb4QgEN
BB8WHU9wZW5TU0wgR2VuZXJhdGVkIENlcnRpZmljYXRlMB0GA1UdDgQWBBRm3bXX
KQgiS9L1uLI5f2+ujk1mwzAfBgNVHSMEGDAWgBRXC+OpfdA8xNc7GHfpJAf3PCJZ
FTANBgkqhkiG9w0BAQsFAAOCAQEAtGuEmMya+ONELeLjDIZNLiTHRW0KZPqZkvSp
/SawH4RrRU8AnKlxI4MINjWDKv0m+7RRoZUB1AE9TxV8rWxDhODr+eqJDRmV+cps
XLi9kW6+JlUEKBvODvEyZeXtwuiFkXIa3IIPudgaNwZlkk3iPg3FWH4kf4SaP2cz
tLPaja+QefmW31Dx+TKVnaRFtyzqAKs+msH0OtTihb+vbrMHAMiRsy57dutb8yyi
tvX16vk9B7gJyRS0AgN7GREVbf9xQXOzlKeV6vbBV5QGi6zRUcmqB9TW4FSkippY
RFSN1YL7Pm1ggpDp839E5QC4wYXZLBKbGVuQlXz1zbz00JxJHg==
-----END CERTIFICATE-----
